target datalayout = "e-m:e-p270:32:32-p271:32:32-p272:64:64-i64:64-i128:128-f80:128-n8:16:32:64-S128"
target triple = "x86_64-pc-linux-gnu"

%struct.CVodeMemRec = type { double, ptr, ptr, i32, i32, i32, double, double, ptr, i32, ptr, ptr, i32, ptr, i32, i32, double, double, ptr, i32, i32, i32, ptr, ptr, ptr, i32, i32, ptr, ptr, ptr, i32, double, i32, i32, double, ptr, ptr, i32, ptr, ptr, i32, i32, i32, double, ptr, ptr, [13 x ptr], ptr, ptr, ptr, ptr, ptr, [13 x ptr], ptr, ptr, ptr, ptr, [13 x ptr], ptr, ptr, ptr, ptr, ptr, i32, [13 x ptr], ptr, ptr, ptr, ptr, ptr, i32, double, i32, i32, i32, i32, i32, double, double, double, double, double, double, double, double, [14 x double], [6 x double], [13 x double], double, double, double, double, double, double, double, double, double, double, double, i32, ptr, i32, i64, i32, i32, i32, i32, i32, double, double, double, i64, i64, i64, i64, i64, i64, i64, i64, i64, ptr, i64, i64, ptr, i64, i64, i64, i64, i64, i64, i32, i64, i64, i64, i64, i64, i64, double, double, double, ptr, ptr, ptr, ptr, ptr, i32, i32, i64, double, double, double, i32, double, i32, i32, i32, i32, i32, i32, i32, i32, i32, i32, i32, i32, i32, i32, i32, i32, ptr, ptr, ptr, i32, [6 x [4 x double]], i32, i64, ptr, i32, ptr, ptr, double, double, double, ptr, ptr, ptr, double, double, i32, i32, i64, ptr, i32, i32, ptr, i32 }
%struct.CVadjMemRec = type { double, double, i32, i32, double, ptr, i32, ptr, i32, ptr, i32, ptr, i64, ptr, i64, i32, ptr, ptr, ptr, ptr, i32, i32, i32, i32, [13 x ptr], [13 x ptr], [13 x double], ptr, ptr, i64 }
%struct.CVodeBMemRec = type { i32, double, ptr, i32, i32, ptr, ptr, ptr, ptr, ptr, ptr, ptr, ptr, ptr, double, ptr, ptr }
%struct.CVDlsMemRecB = type { i32, ptr, ptr, ptr, ptr }

@.str = private unnamed_addr constant [8 x i8] c"CVSBAND\00", align 1
@.str.2 = private unnamed_addr constant [27 x i8] c"Integrator memory is NULL.\00", align 1
@.str.4 = private unnamed_addr constant [25 x i8] c"A memory request failed.\00", align 1
@.str.6 = private unnamed_addr constant [8 x i8] c"CVBandB\00", align 1
@.str.7 = private unnamed_addr constant [55 x i8] c"Illegal attempt to call before calling CVodeAdjMalloc.\00", align 1
@.str.8 = private unnamed_addr constant [25 x i8] c"Illegal value for which.\00", align 1

; Function Attrs: nounwind uwtable
define i32 @CVBandB(ptr noundef %0, i32 noundef %1, i64 noundef %2, i64 noundef %3, i64 noundef %4) #0 {
  %6 = alloca i32, align 4
  %7 = alloca ptr, align 8
  %8 = alloca i32, align 4
  %9 = alloca i64, align 8
  %10 = alloca i64, align 8
  %11 = alloca i64, align 8
  %12 = alloca ptr, align 8
  %13 = alloca ptr, align 8
  %14 = alloca ptr, align 8
  %15 = alloca ptr, align 8
  %16 = alloca ptr, align 8
  %17 = alloca i32, align 4
  %18 = alloca i32, align 4
  store ptr %0, ptr %7, align 8, !tbaa !3
  store i32 %1, ptr %8, align 4, !tbaa !53
  store i64 %2, ptr %9, align 8, !tbaa !7
  store i64 %3, ptr %10, align 8, !tbaa !7
  store i64 %4, ptr %11, align 8, !tbaa !7
  call void @llvm.lifetime.start.p0(i64 8, ptr %12) #5
  call void @llvm.lifetime.start.p0(i64 8, ptr %13) #5
  call void @llvm.lifetime.start.p0(i64 8, ptr %14) #5
  call void @llvm.lifetime.start.p0(i64 8, ptr %15) #5
  call void @llvm.lifetime.start.p0(i64 8, ptr %16) #5
  call void @llvm.lifetime.start.p0(i64 4, ptr %17) #5
  %19 = load ptr, ptr %7, align 8, !tbaa !3
  %20 = icmp eq ptr %19, null
  br i1 %20, label %21, label %22

21:                                               ; preds = %5
  call void (ptr, i32, ptr, ptr, ptr, ...) @cvProcessError(ptr noundef null, i32 noundef -1, ptr noundef @.str, ptr noundef @.str.6, ptr noundef @.str.2)
  store i32 -1, ptr %6, align 4
  store i32 1, ptr %18, align 4
  br label %89

22:                                               ; preds = %5
  %23 = load ptr, ptr %7, align 8, !tbaa !3
  store ptr %23, ptr %12, align 8, !tbaa !9
  %24 = load ptr, ptr %12, align 8, !tbaa !9
  %25 = getelementptr inbounds nuw %struct.CVodeMemRec, ptr %24, i32 0, i32 195
  %26 = load i32, ptr %25, align 8, !tbaa !64
  %27 = icmp eq i32 %26, 0
  br i1 %27, label %28, label %30

28:                                               ; preds = %22
  %29 = load ptr, ptr %12, align 8, !tbaa !9
  call void (ptr, i32, ptr, ptr, ptr, ...) @cvProcessError(ptr noundef %29, i32 noundef -101, ptr noundef @.str, ptr noundef @.str.6, ptr noundef @.str.7)
  store i32 -101, ptr %6, align 4
  store i32 1, ptr %18, align 4
  br label %89

30:                                               ; preds = %22
  %31 = load ptr, ptr %12, align 8, !tbaa !9
  %32 = getelementptr inbounds nuw %struct.CVodeMemRec, ptr %31, i32 0, i32 194
  %33 = load ptr, ptr %32, align 8, !tbaa !65
  store ptr %33, ptr %13, align 8, !tbaa !66
  %34 = load i32, ptr %8, align 4, !tbaa !53
  %35 = load ptr, ptr %13, align 8, !tbaa !66
  %36 = getelementptr inbounds nuw %struct.CVadjMemRec, ptr %35, i32 0, i32 6
  %37 = load i32, ptr %36, align 8, !tbaa !67
  %38 = icmp sge i32 %34, %37
  br i1 %38, label %39, label %41

39:                                               ; preds = %30
  %40 = load ptr, ptr %12, align 8, !tbaa !9
  call void (ptr, i32, ptr, ptr, ptr, ...) @cvProcessError(ptr noundef %40, i32 noundef -3, ptr noundef @.str, ptr noundef @.str.6, ptr noundef @.str.8)
  store i32 -3, ptr %6, align 4
  store i32 1, ptr %18, align 4
  br label %89

41:                                               ; preds = %30
  %42 = load ptr, ptr %13, align 8, !tbaa !66
  %43 = getelementptr inbounds nuw %struct.CVadjMemRec, ptr %42, i32 0, i32 5
  %44 = load ptr, ptr %43, align 8, !tbaa !72
  store ptr %44, ptr %14, align 8, !tbaa !73
  br label %45

45:                                               ; preds = %55, %41
  %46 = load ptr, ptr %14, align 8, !tbaa !73
  %47 = icmp ne ptr %46, null
  br i1 %47, label %48, label %59

48:                                               ; preds = %45
  %49 = load i32, ptr %8, align 4, !tbaa !53
  %50 = load ptr, ptr %14, align 8, !tbaa !73
  %51 = getelementptr inbounds nuw %struct.CVodeBMemRec, ptr %50, i32 0, i32 0
  %52 = load i32, ptr %51, align 8, !tbaa !74
  %53 = icmp eq i32 %49, %52
  br i1 %53, label %54, label %55

54:                                               ; preds = %48
  br label %59

55:                                               ; preds = %48
  %56 = load ptr, ptr %14, align 8, !tbaa !73
  %57 = getelementptr inbounds nuw %struct.CVodeBMemRec, ptr %56, i32 0, i32 16
  %58 = load ptr, ptr %57, align 8, !tbaa !76
  store ptr %58, ptr %14, align 8, !tbaa !73
  br label %45, !llvm.loop !77

59:                                               ; preds = %54, %45
  %60 = load ptr, ptr %14, align 8, !tbaa !73
  %61 = getelementptr inbounds nuw %struct.CVodeBMemRec, ptr %60, i32 0, i32 2
  %62 = load ptr, ptr %61, align 8, !tbaa !79
  store ptr %62, ptr %15, align 8, !tbaa !3
  %63 = call noalias ptr @malloc(i64 noundef 40) #6
  store ptr %63, ptr %16, align 8, !tbaa !80
  %64 = load ptr, ptr %16, align 8, !tbaa !80
  %65 = icmp eq ptr %64, null
  br i1 %65, label %66, label %68

66:                                               ; preds = %59
  %67 = load ptr, ptr %12, align 8, !tbaa !9
  call void (ptr, i32, ptr, ptr, ptr, ...) @cvProcessError(ptr noundef %67, i32 noundef -4, ptr noundef @.str, ptr noundef @.str.6, ptr noundef @.str.4)
  store i32 -4, ptr %6, align 4
  store i32 1, ptr %18, align 4
  br label %89

68:                                               ; preds = %59
  %69 = load ptr, ptr %16, align 8, !tbaa !80
  %70 = getelementptr inbounds nuw %struct.CVDlsMemRecB, ptr %69, i32 0, i32 0
  store i32 2, ptr %70, align 8, !tbaa !82
  %71 = load ptr, ptr %16, align 8, !tbaa !80
  %72 = getelementptr inbounds nuw %struct.CVDlsMemRecB, ptr %71, i32 0, i32 3
  store ptr null, ptr %72, align 8, !tbaa !84
  %73 = load ptr, ptr %16, align 8, !tbaa !80
  %74 = load ptr, ptr %14, align 8, !tbaa !73
  %75 = getelementptr inbounds nuw %struct.CVodeBMemRec, ptr %74, i32 0, i32 10
  store ptr %73, ptr %75, align 8, !tbaa !85
  %76 = load ptr, ptr %14, align 8, !tbaa !73
  %77 = getelementptr inbounds nuw %struct.CVodeBMemRec, ptr %76, i32 0, i32 11
  store ptr @cvBandFreeB, ptr %77, align 8, !tbaa !86
  %78 = load ptr, ptr %15, align 8, !tbaa !3
  %79 = load i64, ptr %9, align 8, !tbaa !7
  %80 = load i64, ptr %10, align 8, !tbaa !7
  %81 = load i64, ptr %11, align 8, !tbaa !7
  %82 = call i32 @CVBand(ptr noundef %78, i64 noundef %79, i64 noundef %80, i64 noundef %81)
  store i32 %82, ptr %17, align 4, !tbaa !53
  %83 = load i32, ptr %17, align 4, !tbaa !53
  %84 = icmp ne i32 %83, 0
  br i1 %84, label %85, label %87

85:                                               ; preds = %68
  %86 = load ptr, ptr %16, align 8, !tbaa !80
  call void @free(ptr noundef %86) #5
  store ptr null, ptr %16, align 8, !tbaa !80
  br label %87

87:                                               ; preds = %85, %68
  %88 = load i32, ptr %17, align 4, !tbaa !53
  store i32 %88, ptr %6, align 4
  store i32 1, ptr %18, align 4
  br label %89

89:                                               ; preds = %87, %66, %39, %28, %21
  call void @llvm.lifetime.end.p0(i64 4, ptr %17) #5
  call void @llvm.lifetime.end.p0(i64 8, ptr %16) #5
  call void @llvm.lifetime.end.p0(i64 8, ptr %15) #5
  call void @llvm.lifetime.end.p0(i64 8, ptr %14) #5
  call void @llvm.lifetime.end.p0(i64 8, ptr %13) #5
  call void @llvm.lifetime.end.p0(i64 8, ptr %12) #5
  %90 = load i32, ptr %6, align 4
  ret i32 %90
}