; Function Attrs: nounwind uwtable
define range(i32 -101, 1) i32 @CVBandB(ptr noundef %0, i32 noundef %1, i64 noundef %2, i64 noundef %3, i64 noundef %4) local_unnamed_addr #0 {
  %6 = icmp eq ptr %0, null
  br i1 %6, label %7, label %8

7:                                                ; preds = %5
  tail call void (ptr, i32, ptr, ptr, ptr, ...) @cvProcessError(ptr noundef null, i32 noundef -1, ptr noundef nonnull @.str, ptr noundef nonnull @.str.6, ptr noundef nonnull @.str.2) #7
  br label %35

8:                                                ; preds = %5
  %9 = getelementptr inbounds nuw i8, ptr %0, i64 2200
  %10 = load i32, ptr %9, align 8, !tbaa !53
  %11 = icmp eq i32 %10, 0
  br i1 %11, label %12, label %13

12:                                               ; preds = %8
  tail call void (ptr, i32, ptr, ptr, ptr, ...) @cvProcessError(ptr noundef nonnull %0, i32 noundef -101, ptr noundef nonnull @.str, ptr noundef nonnull @.str.6, ptr noundef nonnull @.str.7) #7
  br label %35

13:                                               ; preds = %8
  %14 = getelementptr inbounds nuw i8, ptr %0, i64 2192
  %15 = load ptr, ptr %14, align 8, !tbaa !54
  %16 = getelementptr inbounds nuw i8, ptr %15, i64 40
  %17 = load i32, ptr %16, align 8, !tbaa !55
  %.not = icmp slt i32 %1, %17
  br i1 %.not, label %19, label %18

18:                                               ; preds = %13
  tail call void (ptr, i32, ptr, ptr, ptr, ...) @cvProcessError(ptr noundef nonnull %0, i32 noundef -3, ptr noundef nonnull @.str, ptr noundef nonnull @.str.6, ptr noundef nonnull @.str.8) #7
  br label %35

19:                                               ; preds = %13
  %20 = getelementptr inbounds nuw i8, ptr %15, i64 32
  br label %.lr.ph

.lr.ph:                                           ; preds = %.lr.ph, %19
  %.028.sink.in = phi ptr [ %23, %.lr.ph ], [ %20, %19 ]
  %.028.sink = load ptr, ptr %.028.sink.in, align 8, !tbaa !60, !nonnull !61, !noundef !61
  %21 = load i32, ptr %.028.sink, align 8, !tbaa !62
  %22 = icmp eq i32 %1, %21
  %23 = getelementptr inbounds nuw i8, ptr %.028.sink, i64 120
  br i1 %22, label %._crit_edge, label %.lr.ph

._crit_edge:                                      ; preds = %.lr.ph
  %24 = getelementptr inbounds nuw i8, ptr %.028.sink, i64 16
  %25 = load ptr, ptr %24, align 8, !tbaa !65
  %26 = tail call noalias dereferenceable_or_null(40) ptr @malloc(i64 noundef 40) #8
  %27 = icmp eq ptr %26, null
  br i1 %27, label %28, label %29

28:                                               ; preds = %._crit_edge
  tail call void (ptr, i32, ptr, ptr, ptr, ...) @cvProcessError(ptr noundef nonnull %0, i32 noundef -4, ptr noundef nonnull @.str, ptr noundef nonnull @.str.6, ptr noundef nonnull @.str.4) #7
  br label %35

29:                                               ; preds = %._crit_edge
  store i32 2, ptr %26, align 8, !tbaa !66
  %30 = getelementptr inbounds nuw i8, ptr %26, i64 24
  store ptr null, ptr %30, align 8, !tbaa !68
  %31 = getelementptr inbounds nuw i8, ptr %.028.sink, i64 72
  store ptr %26, ptr %31, align 8, !tbaa !69
  %32 = getelementptr inbounds nuw i8, ptr %.028.sink, i64 80
  store ptr @cvBandFreeB, ptr %32, align 8, !tbaa !70
  %33 = tail call i32 @CVBand(ptr noundef %25, i64 noundef %2, i64 noundef %3, i64 noundef %4)
  %.not33 = icmp eq i32 %33, 0
  br i1 %.not33, label %35, label %34

34:                                               ; preds = %29
  tail call void @free(ptr noundef nonnull %26) #7
  br label %35

35:                                               ; preds = %29, %34, %28, %18, %12, %7
  %.0 = phi i32 [ -1, %7 ], [ -101, %12 ], [ -3, %18 ], [ -4, %28 ], [ %33, %34 ], [ 0, %29 ]
  ret i32 %.0
}